target datalayout = "e-m:e-p270:32:32-p271:32:32-p272:64:64-i64:64-i128:128-f80:128-n8:16:32:64-S128"
target triple = "x86_64-pc-linux-gnu"

%struct.slurm_conf_t = type { i64, ptr, i16, ptr, ptr, ptr, ptr, ptr, i16, ptr, ptr, ptr, ptr, ptr, ptr, ptr, i16, ptr, ptr, ptr, ptr, i16, ptr, ptr, ptr, i64, ptr, ptr, ptr, ptr, i16, ptr, ptr, i16, i32, ptr, i32, ptr, i32, i32, ptr, ptr, i64, i64, ptr, i16, i16, ptr, i32, i32, ptr, i32, ptr, i32, i16, i16, i16, ptr, i16, i16, ptr, ptr, i32, i16, i16, ptr, i32, i16, ptr, ptr, ptr, ptr, i16, ptr, ptr, ptr, ptr, i32, ptr, ptr, ptr, ptr, i16, i16, ptr, i32, i32, i32, i16, i16, ptr, ptr, i16, ptr, ptr, i32, i32, i32, i32, i32, i64, i32, i32, i16, ptr, ptr, i32, ptr, ptr, ptr, i16, i32, ptr, ptr, i16, ptr, ptr, i32, i16, ptr, ptr, ptr, ptr, i32, i32, i16, i16, i32, ptr, i16, ptr, i32, i32, i32, i32, i32, i32, ptr, i16, ptr, ptr, i32, i16, ptr, i32, i16, i16, ptr, ptr, ptr, i16, ptr, ptr, ptr, ptr, i16, i16, ptr, i16, ptr, i16, ptr, i16, ptr, i16, ptr, ptr, ptr, ptr, i16, ptr, ptr, ptr, i32, ptr, i32, ptr, ptr, i16, ptr, ptr, i32, i16, ptr, ptr, i16, i16, ptr, i16, ptr, ptr, ptr, i32, ptr, i16, i16, ptr, ptr, ptr, ptr, ptr, ptr, ptr, ptr, i16, i32, i16, ptr, ptr, ptr, ptr, i32, ptr, ptr, ptr, i16, ptr, ptr, ptr, i16, ptr, i16, ptr, i16, i16, ptr }
%struct.job_record = type { i32, ptr, ptr, ptr, ptr, i16, i32, i32, i32, ptr, i32, ptr, ptr, i16, ptr, double, i64, ptr, ptr, ptr, ptr, ptr, ptr, i32, ptr, i32, i64, i64, i32, i32, ptr, i16, i64, i64, i8, i32, ptr, ptr, ptr, ptr, ptr, ptr, ptr, ptr, i32, ptr, ptr, i32, ptr, i32, ptr, i32, ptr, i32, ptr, ptr, ptr, ptr, ptr, ptr, i32, i16, i64, ptr, ptr, ptr, ptr, %struct.acct_policy_limit_set_t, i16, ptr, ptr, ptr, ptr, ptr, i32, ptr, ptr, ptr, ptr, ptr, i32, i32, ptr, ptr, ptr, i16, ptr, ptr, i8, ptr, ptr, i64, i64, i8, i32, i32, i8, i32, ptr, i32, i64, i32, ptr, ptr, ptr, i8, i16, i64, i32, ptr, ptr, ptr, ptr, ptr, i16, i32, ptr, ptr, ptr, ptr, i32, ptr, i32, i16, i64, ptr, i32, i32, ptr, i64, ptr, ptr, i64, i32, i32, i64, i32, i32, ptr, ptr, ptr, ptr, ptr, ptr, ptr, ptr, ptr, ptr, ptr, ptr, i32, ptr, i16, i16, i16, i16, ptr, i32, i32, i8, i64 }
%struct.acct_policy_limit_set_t = type { i16, i16, ptr }
%struct.slurm_selected_step_t = type { ptr, i32, i32, %struct.slurm_step_id_msg }
%struct.slurm_step_id_msg = type { i64, i32, i32, i32 }
%struct.array_task_state_cached_t = type { i32, i32, i32 }

@cache_table = internal global ptr null, align 8
@slurm_conf = external global %struct.slurm_conf_t, align 8
@array_task_cache_table = internal global ptr null, align 8
@.str.18 = private unnamed_addr constant [19 x i8] c"_foreach_cache_job\00", align 1
@.str.19 = private unnamed_addr constant [39 x i8] c"TRACE_JOBS: %s: [%pJ] Resolved from %s\00", align 1
@__func__._find_job_state_cached_by_id = private unnamed_addr constant [29 x i8] c"_find_job_state_cached_by_id\00", align 1
@.str.20 = private unnamed_addr constant [43 x i8] c"TRACE_JOBS: %s: [%s] Unable to resolve job\00", align 1

; Function Attrs: nounwind uwtable
define internal void @_find_job_state_cached_by_id(ptr noundef %0, ptr noundef %1) #0 {
  %3 = alloca ptr, align 8
  %4 = alloca ptr, align 8
  %5 = alloca ptr, align 8
  %6 = alloca ptr, align 8
  %7 = alloca %struct.array_task_state_cached_t, align 4
  %8 = alloca %struct.slurm_selected_step_t, align 8
  %9 = alloca %struct.job_record, align 8
  store ptr %0, ptr %3, align 8
  store ptr %1, ptr %4, align 8
  call void @llvm.lifetime.start.p0(i64 8, ptr %5) #8
  store ptr null, ptr %5, align 8
  %10 = load ptr, ptr %4, align 8
  %11 = getelementptr inbounds nuw %struct.slurm_selected_step_t, ptr %10, i32 0, i32 3
  %12 = getelementptr inbounds nuw %struct.slurm_step_id_msg, ptr %11, i32 0, i32 1
  %13 = load i32, ptr %12, align 8
  %14 = icmp ne i32 %13, 0
  br i1 %14, label %16, label %15

15:                                               ; preds = %2
  br label %150

16:                                               ; preds = %2
  %17 = load ptr, ptr %4, align 8
  %18 = getelementptr inbounds nuw %struct.slurm_selected_step_t, ptr %17, i32 0, i32 3
  %19 = getelementptr inbounds nuw %struct.slurm_step_id_msg, ptr %18, i32 0, i32 1
  %20 = load i32, ptr %19, align 8
  %21 = icmp eq i32 %20, -2
  br i1 %21, label %22, label %26

22:                                               ; preds = %16
  %23 = load ptr, ptr @cache_table, align 8
  %24 = load ptr, ptr %3, align 8
  %25 = call i32 @xahash_foreach_entry_funcname(ptr noundef %23, ptr noundef @_foreach_cache_job, ptr noundef @.str.18, ptr noundef %24)
  br label %150

26:                                               ; preds = %16
  br label %27

27:                                               ; preds = %26
  %28 = load ptr, ptr %4, align 8
  %29 = getelementptr inbounds nuw %struct.slurm_selected_step_t, ptr %28, i32 0, i32 1
  %30 = load i32, ptr %29, align 8
  %31 = icmp ne i32 %30, -2
  br i1 %31, label %32, label %127

32:                                               ; preds = %27
  call void @llvm.lifetime.start.p0(i64 8, ptr %6) #8
  %33 = load ptr, ptr @array_task_cache_table, align 8
  %34 = getelementptr inbounds nuw %struct.array_task_state_cached_t, ptr %7, i32 0, i32 0
  %35 = load ptr, ptr %4, align 8
  %36 = getelementptr inbounds nuw %struct.slurm_selected_step_t, ptr %35, i32 0, i32 1
  %37 = load i32, ptr %36, align 8
  %38 = icmp ult i32 %37, -2
  br i1 %38, label %39, label %40

39:                                               ; preds = %32
  br label %45

40:                                               ; preds = %32
  %41 = load ptr, ptr %4, align 8
  %42 = getelementptr inbounds nuw %struct.slurm_selected_step_t, ptr %41, i32 0, i32 3
  %43 = getelementptr inbounds nuw %struct.slurm_step_id_msg, ptr %42, i32 0, i32 1
  %44 = load i32, ptr %43, align 8
  br label %45

45:                                               ; preds = %40, %39
  %46 = phi i32 [ -2, %39 ], [ %44, %40 ]
  store i32 %46, ptr %34, align 4
  %47 = getelementptr inbounds nuw %struct.array_task_state_cached_t, ptr %7, i32 0, i32 1
  %48 = load ptr, ptr %4, align 8
  %49 = getelementptr inbounds nuw %struct.slurm_selected_step_t, ptr %48, i32 0, i32 1
  %50 = load i32, ptr %49, align 8
  %51 = icmp ult i32 %50, -2
  br i1 %51, label %52, label %57

52:                                               ; preds = %45
  %53 = load ptr, ptr %4, align 8
  %54 = getelementptr inbounds nuw %struct.slurm_selected_step_t, ptr %53, i32 0, i32 3
  %55 = getelementptr inbounds nuw %struct.slurm_step_id_msg, ptr %54, i32 0, i32 1
  %56 = load i32, ptr %55, align 8
  br label %58

57:                                               ; preds = %45
  br label %58

58:                                               ; preds = %57, %52
  %59 = phi i32 [ %56, %52 ], [ 0, %57 ]
  store i32 %59, ptr %47, align 4
  %60 = getelementptr inbounds nuw %struct.array_task_state_cached_t, ptr %7, i32 0, i32 2
  %61 = load ptr, ptr %4, align 8
  %62 = getelementptr inbounds nuw %struct.slurm_selected_step_t, ptr %61, i32 0, i32 1
  %63 = load i32, ptr %62, align 8
  store i32 %63, ptr %60, align 4
  %64 = call ptr @xahash_find_entry(ptr noundef %33, ptr noundef %7, i64 noundef 12)
  store ptr %64, ptr %6, align 8
  %65 = load ptr, ptr %6, align 8
  %66 = icmp ne ptr %65, null
  br i1 %66, label %67, label %109

67:                                               ; preds = %58
  call void @llvm.lifetime.start.p0(i64 40, ptr %8) #8
  call void @llvm.memset.p0.i64(ptr align 8 %8, i8 0, i64 40, i1 false)
  %68 = getelementptr inbounds { ptr, i32, i32, { i64, i32, i32, i32, [4 x i8] } }, ptr %8, i32 0, i32 1
  store i32 -2, ptr %68, align 8
  %69 = getelementptr inbounds { ptr, i32, i32, { i64, i32, i32, i32, [4 x i8] } }, ptr %8, i32 0, i32 2
  store i32 -2, ptr %69, align 4
  %70 = getelementptr inbounds { ptr, i32, i32, { i64, i32, i32, i32, [4 x i8] } }, ptr %8, i32 0, i32 3
  %71 = getelementptr inbounds { i64, i32, i32, i32, [4 x i8] }, ptr %70, i32 0, i32 0
  store i64 4294967294, ptr %71, align 8
  %72 = getelementptr inbounds { i64, i32, i32, i32, [4 x i8] }, ptr %70, i32 0, i32 1
  store i32 -2, ptr %72, align 8
  %73 = getelementptr inbounds { i64, i32, i32, i32, [4 x i8] }, ptr %70, i32 0, i32 2
  store i32 -2, ptr %73, align 4
  %74 = load ptr, ptr %6, align 8
  %75 = getelementptr inbounds nuw %struct.array_task_state_cached_t, ptr %74, i32 0, i32 0
  %76 = load i32, ptr %75, align 4
  %77 = getelementptr inbounds nuw %struct.slurm_selected_step_t, ptr %8, i32 0, i32 3
  %78 = getelementptr inbounds nuw %struct.slurm_step_id_msg, ptr %77, i32 0, i32 1
  store i32 %76, ptr %78, align 8
  br label %79

79:                                               ; preds = %67
  %80 = load i64, ptr getelementptr inbounds nuw (%struct.slurm_conf_t, ptr @slurm_conf, i32 0, i32 42), align 8
  %81 = and i64 %80, 268435456
  %82 = icmp ne i64 %81, 0
  br i1 %82, label %83, label %105

83:                                               ; preds = %79
  br label %84

84:                                               ; preds = %83
  %85 = call i32 @get_log_level()
  %86 = icmp sge i32 %85, 4
  br i1 %86, label %87, label %102

87:                                               ; preds = %84
  call void @llvm.memset.p0.i64(ptr align 8 %9, i8 0, i64 1152, i1 false)
  %88 = getelementptr inbounds nuw %struct.job_record, ptr %9, i32 0, i32 0
  store i32 -256427732, ptr %88, align 8
  %89 = getelementptr inbounds nuw %struct.job_record, ptr %9, i32 0, i32 7
  %90 = load ptr, ptr %6, align 8
  %91 = getelementptr inbounds nuw %struct.array_task_state_cached_t, ptr %90, i32 0, i32 1
  %92 = load i32, ptr %91, align 4
  store i32 %92, ptr %89, align 8
  %93 = getelementptr inbounds nuw %struct.job_record, ptr %9, i32 0, i32 8
  %94 = load ptr, ptr %6, align 8
  %95 = getelementptr inbounds nuw %struct.array_task_state_cached_t, ptr %94, i32 0, i32 2
  %96 = load i32, ptr %95, align 4
  store i32 %96, ptr %93, align 4
  %97 = getelementptr inbounds nuw %struct.job_record, ptr %9, i32 0, i32 53
  %98 = load ptr, ptr %6, align 8
  %99 = getelementptr inbounds nuw %struct.array_task_state_cached_t, ptr %98, i32 0, i32 0
  %100 = load i32, ptr %99, align 4
  store i32 %100, ptr %97, align 8
  %101 = load ptr, ptr %5, align 8
  call void (i32, ptr, ...) @log_var(i32 noundef 4, ptr noundef @.str.19, ptr noundef @__func__._find_job_state_cached_by_id, ptr noundef %9, ptr noundef %101)
  br label %102

102:                                              ; preds = %87, %84
  br label %103

103:                                              ; preds = %102
  br label %104

104:                                              ; preds = %103
  br label %105

105:                                              ; preds = %104, %79
  br label %106

106:                                              ; preds = %105
  br label %107

107:                                              ; preds = %106
  %108 = load ptr, ptr %3, align 8
  call void @_find_job_state_cached_by_id(ptr noundef %108, ptr noundef %8)
  call void @llvm.lifetime.end.p0(i64 40, ptr %8) #8
  br label %126

109:                                              ; preds = %58
  br label %110

110:                                              ; preds = %109
  %111 = load i64, ptr getelementptr inbounds nuw (%struct.slurm_conf_t, ptr @slurm_conf, i32 0, i32 42), align 8
  %112 = and i64 %111, 268435456
  %113 = icmp ne i64 %112, 0
  br i1 %113, label %114, label %123

114:                                              ; preds = %110
  br label %115

115:                                              ; preds = %114
  %116 = call i32 @get_log_level()
  %117 = icmp sge i32 %116, 4
  br i1 %117, label %118, label %120

118:                                              ; preds = %115
  %119 = load ptr, ptr %5, align 8
  call void (i32, ptr, ...) @log_var(i32 noundef 4, ptr noundef @.str.20, ptr noundef @__func__._find_job_state_cached_by_id, ptr noundef %119)
  br label %120

120:                                              ; preds = %118, %115
  br label %121

121:                                              ; preds = %120
  br label %122

122:                                              ; preds = %121
  br label %123

123:                                              ; preds = %122, %110
  br label %124

124:                                              ; preds = %123
  br label %125

125:                                              ; preds = %124
  br label %126

126:                                              ; preds = %125, %107
  call void @llvm.lifetime.end.p0(i64 8, ptr %6) #8
  br label %149

127:                                              ; preds = %27
  %128 = load ptr, ptr %4, align 8
  %129 = getelementptr inbounds nuw %struct.slurm_selected_step_t, ptr %128, i32 0, i32 2
  %130 = load i32, ptr %129, align 4
  %131 = icmp ne i32 %130, -2
  br i1 %131, label %132, label %142

132:                                              ; preds = %127
  %133 = load ptr, ptr %3, align 8
  %134 = load ptr, ptr %4, align 8
  %135 = getelementptr inbounds nuw %struct.slurm_selected_step_t, ptr %134, i32 0, i32 3
  %136 = getelementptr inbounds nuw %struct.slurm_step_id_msg, ptr %135, i32 0, i32 1
  %137 = load i32, ptr %136, align 8
  %138 = load ptr, ptr %4, align 8
  %139 = getelementptr inbounds nuw %struct.slurm_selected_step_t, ptr %138, i32 0, i32 2
  %140 = load i32, ptr %139, align 4
  %141 = add i32 %137, %140
  call void @_find_job_state_cached_by_job_id(ptr noundef %133, i32 noundef %141, i1 noundef zeroext false)
  br label %148

142:                                              ; preds = %127
  %143 = load ptr, ptr %3, align 8
  %144 = load ptr, ptr %4, align 8
  %145 = getelementptr inbounds nuw %struct.slurm_selected_step_t, ptr %144, i32 0, i32 3
  %146 = getelementptr inbounds nuw %struct.slurm_step_id_msg, ptr %145, i32 0, i32 1
  %147 = load i32, ptr %146, align 8
  call void @_find_job_state_cached_by_job_id(ptr noundef %143, i32 noundef %147, i1 noundef zeroext true)
  br label %148

148:                                              ; preds = %142, %132
  br label %149

149:                                              ; preds = %148, %126
  br label %150

150:                                              ; preds = %149, %22, %15
  call void @slurm_xfree(ptr noundef %5)
  call void @llvm.lifetime.end.p0(i64 8, ptr %5) #8
  ret void
}