; Function Attrs: nounwind uwtable
define internal fastcc void @_find_job_state_cached_by_id(ptr noundef nonnull %0, ptr noundef readonly captures(none) %1) unnamed_addr #0 {
  %3 = alloca ptr, align 8
  %4 = alloca %struct.array_task_state_cached_t, align 4
  %5 = alloca %struct.slurm_selected_step_t, align 8
  %6 = alloca %struct.job_record, align 8
  call void @llvm.lifetime.start.p0(i64 8, ptr nonnull %3) #9
  store ptr null, ptr %3, align 8
  %7 = getelementptr inbounds nuw i8, ptr %1, i64 24
  %8 = load i32, ptr %7, align 8
  switch i32 %8, label %12 [
    i32 0, label %55
    i32 -2, label %9
  ]

9:                                                ; preds = %2
  %10 = load ptr, ptr @cache_table, align 8
  %11 = tail call i32 @xahash_foreach_entry_funcname(ptr noundef %10, ptr noundef nonnull @_foreach_cache_job, ptr noundef nonnull @.str.18, ptr noundef nonnull %0) #9
  br label %55

12:                                               ; preds = %2
  %13 = getelementptr inbounds nuw i8, ptr %1, i64 8
  %14 = load i32, ptr %13, align 8
  %.not24 = icmp eq i32 %14, -2
  br i1 %.not24, label %49, label %15

15:                                               ; preds = %12
  %16 = load ptr, ptr @array_task_cache_table, align 8
  %.not26 = icmp eq i32 %14, -1
  %spec.select = select i1 %.not26, i32 %8, i32 -2
  store i32 %spec.select, ptr %4, align 4
  %17 = getelementptr inbounds nuw i8, ptr %4, i64 4
  %spec.select30 = select i1 %.not26, i32 0, i32 %8
  store i32 %spec.select30, ptr %17, align 4
  %18 = getelementptr inbounds nuw i8, ptr %4, i64 8
  store i32 %14, ptr %18, align 4
  %19 = call ptr @xahash_find_entry(ptr noundef %16, ptr noundef nonnull %4, i64 noundef 12) #9
  %.not27 = icmp eq ptr %19, null
  br i1 %.not27, label %42, label %20

20:                                               ; preds = %15
  call void @llvm.lifetime.start.p0(i64 40, ptr nonnull %5) #9
  call void @llvm.memset.p0.i64(ptr noundef nonnull align 8 dereferenceable(40) %5, i8 0, i64 40, i1 false)
  %21 = getelementptr inbounds nuw i8, ptr %5, i64 8
  store i32 -2, ptr %21, align 8
  %22 = getelementptr inbounds nuw i8, ptr %5, i64 12
  store i32 -2, ptr %22, align 4
  %23 = getelementptr inbounds nuw i8, ptr %5, i64 16
  store i64 4294967294, ptr %23, align 8
  %24 = getelementptr inbounds nuw i8, ptr %5, i64 24
  %25 = getelementptr inbounds nuw i8, ptr %5, i64 28
  store i32 -2, ptr %25, align 4
  %26 = load i32, ptr %19, align 4
  store i32 %26, ptr %24, align 8
  %27 = load i64, ptr getelementptr inbounds nuw (i8, ptr @slurm_conf, i64 320), align 8
  %28 = and i64 %27, 268435456
  %.not29 = icmp eq i64 %28, 0
  br i1 %.not29, label %41, label %29

29:                                               ; preds = %20
  %30 = call i32 @get_log_level() #9
  %31 = icmp sgt i32 %30, 3
  br i1 %31, label %32, label %41

32:                                               ; preds = %29
  call void @llvm.memset.p0.i64(ptr noundef nonnull align 8 dereferenceable(1152) %6, i8 0, i64 1152, i1 false)
  store i32 -256427732, ptr %6, align 8
  %33 = getelementptr inbounds nuw i8, ptr %6, i64 48
  %34 = getelementptr inbounds nuw i8, ptr %19, i64 4
  %35 = load i32, ptr %34, align 4
  store i32 %35, ptr %33, align 8
  %36 = getelementptr inbounds nuw i8, ptr %6, i64 52
  %37 = getelementptr inbounds nuw i8, ptr %19, i64 8
  %38 = load i32, ptr %37, align 4
  store i32 %38, ptr %36, align 4
  %39 = getelementptr inbounds nuw i8, ptr %6, i64 392
  %40 = load i32, ptr %19, align 4
  store i32 %40, ptr %39, align 8
  call void (i32, ptr, ...) @log_var(i32 noundef 4, ptr noundef nonnull @.str.19, ptr noundef nonnull @__func__._find_job_state_cached_by_id, ptr noundef nonnull %6, ptr noundef null) #9
  br label %41

41:                                               ; preds = %29, %32, %20
  call fastcc void @_find_job_state_cached_by_id(ptr noundef %0, ptr noundef nonnull %5)
  call void @llvm.lifetime.end.p0(i64 40, ptr nonnull %5) #9
  br label %55

42:                                               ; preds = %15
  %43 = load i64, ptr getelementptr inbounds nuw (i8, ptr @slurm_conf, i64 320), align 8
  %44 = and i64 %43, 268435456
  %.not28 = icmp eq i64 %44, 0
  br i1 %.not28, label %55, label %45

45:                                               ; preds = %42
  %46 = call i32 @get_log_level() #9
  %47 = icmp sgt i32 %46, 3
  br i1 %47, label %48, label %55

48:                                               ; preds = %45
  call void (i32, ptr, ...) @log_var(i32 noundef 4, ptr noundef nonnull @.str.20, ptr noundef nonnull @__func__._find_job_state_cached_by_id, ptr noundef null) #9
  br label %55

49:                                               ; preds = %12
  %50 = getelementptr inbounds nuw i8, ptr %1, i64 12
  %51 = load i32, ptr %50, align 4
  %.not25 = icmp eq i32 %51, -2
  br i1 %.not25, label %54, label %52

52:                                               ; preds = %49
  %53 = add i32 %51, %8
  tail call fastcc void @_find_job_state_cached_by_job_id(ptr noundef %0, i32 noundef %53, i1 noundef zeroext false)
  br label %55

54:                                               ; preds = %49
  tail call fastcc void @_find_job_state_cached_by_job_id(ptr noundef %0, i32 noundef %8, i1 noundef zeroext true)
  br label %55

55:                                               ; preds = %41, %45, %48, %42, %2, %54, %52, %9
  call void @slurm_xfree(ptr noundef nonnull %3) #9
  call void @llvm.lifetime.end.p0(i64 8, ptr nonnull %3) #9
  ret void
}